ccollections
defaultdict
p0
(c__builtin__
float
p1
tp2
Rp3
(I36
I-9
tp4
F0.013687600644122383
s(I15
I0
tp5
F0.09500805152979067
s(I-21
I-30
tp6
F0.018518518518518517
s(I-30
I33
tp7
F0.012077294685990338
s(I18
I-3
tp8
F0.04669887278582931
s(I21
I6
tp9
F0.039452495974235106
s(I-30
I27
tp10
F0.015297906602254429
s(I-6
I12
tp11
F0.09259259259259259
s(I9
I0
tp12
F0.13043478260869565
s(I-33
I-3
tp13
F0.023349436392914653
s(I-39
I24
tp14
F0.0031645569620253164
s(I-27
I24
tp15
F0.008051529790660225
s(I-36
I-18
tp16
F0.008856682769726247
s(I-15
I-6
tp17
F0.07729468599033816
s(I15
I-24
tp18
F0.017713365539452495
s(I18
I-18
tp19
F0.021739130434782608
s(I-30
I-33
tp20
F0.008856682769726247
s(I-39
I36
tp21
F0.0
s(I-24
I12
tp22
F0.018518518518518517
s(I36
I15
tp23
F0.014492753623188406
s(I-9
I9
tp24
F0.11755233494363929
s(I-27
I-39
tp25
F0.009104704097116844
s(I9
I27
tp26
F0.026570048309178744
s(I-6
I-21
tp27
F0.029790660225442835
s(I-24
I-33
tp28
F0.011272141706924315
s(I39
I-9
tp29
F0.0049504950495049506
s(I-21
I15
tp30
F0.020933977455716585
s(I-9
I39
tp31
F0.012658227848101266
s(I-9
I-39
tp32
F0.010218978102189781
s(I-33
I-36
tp33
F0.011272141706924315
s(I-21
I-15
tp34
F0.018518518518518517
s(I-30
I18
tp35
F0.01610305958132045
s(I6
I-21
tp36
F0.033816425120772944
s(I-27
I39
tp37
F0.0076103500761035
s(I-9
I-9
tp38
F0.09259259259259259
s(I-33
I-6
tp39
F0.010466988727858293
s(I-3
I-27
tp40
F0.023349436392914653
s(I-30
I12
tp41
F0.017713365539452495
s(I3
I-9
tp42
F0.0998389694041868
s(I3
I-6
tp43
F0.10144927536231885
s(I24
I21
tp44
F0.013687600644122383
s(I0
I-9
tp45
F0.09742351046698873
s(I21
I-27
tp46
F0.01288244766505636
s(I-36
I-27
tp47
F0.008856682769726247
s(I15
I21
tp48
F0.024154589371980676
s(I-15
I6
tp49
F0.09098228663446055
s(I36
I-24
tp50
F0.008856682769726247
s(I-12
I21
tp51
F0.036231884057971016
s(I-30
I-3
tp52
F0.024154589371980676
s(I27
I6
tp53
F0.017713365539452495
s(I27
I27
tp54
F0.00966183574879227
s(I-15
I24
tp55
F0.01610305958132045
s(I0
I36
tp56
F0.01288244766505636
s(I24
I33
tp57
F0.020933977455716585
s(I-33
I3
tp58
F0.013687600644122383
s(I-9
I6
tp59
F0.1215780998389694
s(I30
I27
tp60
F0.010466988727858293
s(I-36
I36
tp61
F0.00644122383252818
s(I21
I-6
tp62
F0.028985507246376812
s(I-24
I-27
tp63
F0.011272141706924315
s(I-6
I-36
tp64
F0.013687600644122383
s(I36
I39
tp65
F0.005934718100890208
s(I-6
I30
tp66
F0.020128824476650563
s(I-21
I-33
tp67
F0.01288244766505636
s(I33
I27
tp68
F0.015297906602254429
s(I18
I-27
tp69
F0.012077294685990338
s(I3
I33
tp70
F0.012077294685990338
s(I27
I-12
tp71
F0.01932367149758454
s(I-39
I12
tp72
F0.017676767676767676
s(I21
I-3
tp73
F0.026570048309178744
s(I30
I-6
tp74
F0.017713365539452495
s(I24
I-9
tp75
F0.026570048309178744
s(I-12
I-27
tp76
F0.014492753623188406
s(I6
I30
tp77
F0.013687600644122383
s(I15
I-18
tp78
F0.027375201288244767
s(I36
I-3
tp79
F0.020128824476650563
s(I-3
I-24
tp80
F0.02254428341384863
s(I-6
I-3
tp81
F0.14170692431561996
s(I-24
I0
tp82
F0.01610305958132045
s(I27
I3
tp83
F0.026570048309178744
s(I33
I-24
tp84
F0.011272141706924315
s(I15
I30
tp85
F0.014492753623188406
s(I9
I21
tp86
F0.028985507246376812
s(I6
I27
tp87
F0.017713365539452495
s(I30
I36
tp88
F0.010466988727858293
s(I-30
I36
tp89
F0.00966183574879227
s(I6
I-27
tp90
F0.02576489533011272
s(I-33
I-24
tp91
F0.011272141706924315
s(I15
I-27
tp92
F0.01932367149758454
s(I-30
I30
tp93
F0.011272141706924315
s(I-6
I3
tp94
F0.13526570048309178
s(I3
I-24
tp95
F0.03140096618357488
s(I36
I30
tp96
F0.005636070853462158
s(I36
I27
tp97
F0.008856682769726247
s(I36
I3
tp98
F0.00966183574879227
s(I-39
I21
tp99
F0.0030120481927710845
s(I15
I33
tp100
F0.016908212560386472
s(I-12
I27
tp101
F0.028985507246376812
s(I24
I9
tp102
F0.018518518518518517
s(I39
I-15
tp103
F0.0048543689320388345
s(I21
I9
tp104
F0.03542673107890499
s(I15
I-12
tp105
F0.05958132045088567
s(I6
I6
tp106
F0.11835748792270531
s(I-27
I-12
tp107
F0.01610305958132045
s(I-15
I-39
tp108
F0.00894187779433681
s(I33
I-3
tp109
F0.015297906602254429
s(I18
I-36
tp110
F0.013687600644122383
s(I27
I-21
tp111
F0.010466988727858293
s(I-6
I-18
tp112
F0.03864734299516908
s(I33
I-21
tp113
F0.007246376811594203
s(I6
I-36
tp114
F0.01288244766505636
s(I30
I30
tp115
F0.00644122383252818
s(I-21
I-6
tp116
F0.03542673107890499
s(I30
I-27
tp117
F0.008856682769726247
s(I12
I-39
tp118
F0.0124804992199688
s(I9
I6
tp119
F0.08776167471819646
s(I24
I-33
tp120
F0.008051529790660225
s(I0
I-36
tp121
F0.015297906602254429
s(I27
I-3
tp122
F0.01932367149758454
s(I-39
I30
tp123
F0.02702702702702703
s(I-27
I6
tp124
F0.020933977455716585
s(I-3
I9
tp125
F0.1360708534621578
s(I-12
I-21
tp126
F0.0249597423510467
s(I-36
I-24
tp127
F0.013687600644122383
s(I-39
I0
tp128
F0.015122873345935728
s(I-15
I3
tp129
F0.08776167471819646
s(I-36
I27
tp130
F0.014492753623188406
s(I0
I9
tp131
F0.10305958132045089
s(I24
I-21
tp132
F0.008856682769726247
s(I0
I-24
tp133
F0.018518518518518517
s(I-3
I-6
tp134
F0.10305958132045089
s(I-27
I-3
tp135
F0.020933977455716585
s(I30
I12
tp136
F0.021739130434782608
s(I30
I-30
tp137
F0.00966183574879227
s(I-24
I39
tp138
F0.010494752623688156
s(I33
I-6
tp139
F0.012077294685990338
s(I-18
I36
tp140
F0.011272141706924315
s(I9
I-33
tp141
F0.011272141706924315
s(I6
I21
tp142
F0.033816425120772944
s(I15
I-39
tp143
F0.007385524372230428
s(I18
I6
tp144
F0.04830917874396135
s(I-9
I33
tp145
F0.01288244766505636
s(I-18
I-12
tp146
F0.03542673107890499
s(I30
I-39
tp147
F0.01167883211678832
s(I-21
I39
tp148
F0.013677811550151976
s(I-6
I21
tp149
F0.03542673107890499
s(I-15
I-36
tp150
F0.00966183574879227
s(I-9
I-15
tp151
F0.0499194847020934
s(I36
I-12
tp152
F0.016908212560386472
s(I33
I-9
tp153
F0.012077294685990338
s(I-24
I-12
tp154
F0.021739130434782608
s(I15
I-36
tp155
F0.013687600644122383
s(I-27
I15
tp156
F0.026570048309178744
s(I3
I-27
tp157
F0.021739130434782608
s(I15
I15
tp158
F0.05636070853462158
s(I-15
I-15
tp159
F0.05394524959742351
s(I15
I-6
tp160
F0.07004830917874397
s(I-36
I18
tp161
F0.010466988727858293
s(I0
I0
tp162
F0.10466988727858294
s(I-24
I-18
tp163
F0.013687600644122383
s(I27
I24
tp164
F0.011272141706924315
s(I-15
I-9
tp165
F0.07568438003220612
s(I-15
I30
tp166
F0.01610305958132045
s(I-9
I0
tp167
F0.11755233494363929
s(I6
I12
tp168
F0.09259259259259259
s(I-24
I27
tp169
F0.01610305958132045
s(I9
I-9
tp170
F0.10789049919484701
s(I-21
I6
tp171
F0.03542673107890499
s(I21
I15
tp172
F0.021739130434782608
s(I18
I3
tp173
F0.05394524959742351
s(I27
I39
tp174
F0.01355421686746988
s(I-24
I33
tp175
F0.010466988727858293
s(I9
I15
tp176
F0.08293075684380032
s(I21
I-30
tp177
F0.01288244766505636
s(I12
I-33
tp178
F0.011272141706924315
s(I-3
I33
tp179
F0.018518518518518517
s(I-6
I6
tp180
F0.13365539452495975
s(I-24
I18
tp181
F0.00966183574879227
s(I24
I30
tp182
F0.020933977455716585
s(I36
I6
tp183
F0.014492753623188406
s(I3
I15
tp184
F0.07085346215780998
s(I-39
I18
tp185
F0.022284122562674095
s(I-27
I18
tp186
F0.014492753623188406
s(I-12
I30
tp187
F0.018518518518518517
s(I3
I-21
tp188
F0.026570048309178744
s(I36
I36
tp189
F0.007246376811594203
s(I12
I-12
tp190
F0.07890499194847021
s(I21
I-15
tp191
F0.023349436392914653
s(I33
I15
tp192
F0.010466988727858293
s(I33
I-12
tp193
F0.020128824476650563
s(I39
I9
tp194
F0.016260162601626018
s(I3
I24
tp195
F0.030595813204508857
s(I39
I36
tp196
F0.006633499170812604
s(I30
I0
tp197
F0.015297906602254429
s(I30
I39
tp198
F0.010416666666666666
s(I33
I-18
tp199
F0.011272141706924315
s(I-18
I24
tp200
F0.0249597423510467
s(I9
I-39
tp201
F0.01585014409221902
s(I-6
I-27
tp202
F0.011272141706924315
s(I27
I-15
tp203
F0.013687600644122383
s(I-21
I21
tp204
F0.024154589371980676
s(I-6
I39
tp205
F0.011611030478955007
s(I9
I39
tp206
F0.007320644216691069
s(I-18
I-24
tp207
F0.020933977455716585
s(I-24
I-39
tp208
F0.009259259259259259
s(I-36
I-33
tp209
F0.005636070853462158
s(I-24
I-30
tp210
F0.011272141706924315
s(I6
I-3
tp211
F0.0998389694041868
s(I21
I-21
tp212
F0.015297906602254429
s(I-9
I-3
tp213
F0.11996779388083736
s(I33
I-15
tp214
F0.012077294685990338
s(I-39
I27
tp215
F0.010101010101010102
s(I18
I12
tp216
F0.04106280193236715
s(I-27
I27
tp217
F0.010466988727858293
s(I0
I30
tp218
F0.021739130434782608
s(I3
I21
tp219
F0.0322061191626409
s(I0
I-3
tp220
F0.11594202898550725
s(I-12
I-18
tp221
F0.028985507246376812
s(I-27
I-24
tp222
F0.015297906602254429
s(I3
I-15
tp223
F0.07971014492753623
s(I-36
I30
tp224
F0.008051529790660225
s(I-12
I3
tp225
F0.107085346215781
s(I30
I18
tp226
F0.012077294685990338
s(I9
I-24
tp227
F0.03462157809983897
s(I30
I-18
tp228
F0.013687600644122383
s(I27
I12
tp229
F0.02818035426731079
s(I-39
I39
tp230
F0.00558659217877095
s(I-30
I-9
tp231
F0.017713365539452495
s(I39
I15
tp232
F0.01779935275080906
s(I-9
I12
tp233
F0.1143317230273752
s(I-3
I-39
tp234
F0.010819165378670788
s(I-27
I-36
tp235
F0.008856682769726247
s(I12
I39
tp236
F0.01585014409221902
s(I21
I24
tp237
F0.017713365539452495
s(I9
I-15
tp238
F0.06360708534621579
s(I21
I-12
tp239
F0.0249597423510467
s(I27
I-39
tp240
F0.00744047619047619
s(I-33
I39
tp241
F0.005873715124816446
s(I-9
I-36
tp242
F0.020128824476650563
s(I9
I9
tp243
F0.10144927536231885
s(I30
I-21
tp244
F0.011272141706924315
s(I6
I-12
tp245
F0.08856682769726248
s(I-9
I-6
tp246
F0.11916264090177134
s(I39
I-30
tp247
F0.00510204081632653
s(I-39
I-15
tp248
F0.006600660066006601
s(I27
I-6
tp249
F0.024154589371980676
s(I-21
I-39
tp250
F0.01291248206599713
s(I0
I21
tp251
F0.04106280193236715
s(I24
I18
tp252
F0.015297906602254429
s(I0
I-12
tp253
F0.09098228663446055
s(I36
I18
tp254
F0.00644122383252818
s(I-39
I6
tp255
F0.008421052631578947
s(I-36
I21
tp256
F0.013687600644122383
s(I27
I15
tp257
F0.018518518518518517
s(I3
I6
tp258
F0.1360708534621578
s(I15
I9
tp259
F0.06682769726247988
s(I-15
I27
tp260
F0.016908212560386472
s(I39
I39
tp261
F0.0028089887640449437
s(I33
I9
tp262
F0.013687600644122383
s(I0
I33
tp263
F0.016908212560386472
s(I-33
I6
tp264
F0.01288244766505636
s(I33
I-33
tp265
F0.005636070853462158
s(I-6
I-9
tp266
F0.0998389694041868
s(I-30
I-24
tp267
F0.00966183574879227
s(I27
I9
tp268
F0.017713365539452495
s(I-21
I3
tp269
F0.036231884057971016
s(I27
I-9
tp270
F0.024154589371980676
s(I-18
I12
tp271
F0.03462157809983897
s(I-18
I-6
tp272
F0.040257648953301126
s(I39
I-39
tp273
F0.018461538461538463
s(I9
I33
tp274
F0.021739130434782608
s(I-18
I-36
tp275
F0.01288244766505636
s(I33
I24
tp276
F0.01288244766505636
s(I30
I-12
tp277
F0.01610305958132045
s(I-3
I0
tp278
F0.11996779388083736
s(I-39
I15
tp279
F0.02284263959390863
s(I24
I-12
tp280
F0.0249597423510467
s(I-3
I-15
tp281
F0.05394524959742351
s(I15
I-30
tp282
F0.018518518518518517
s(I-33
I15
tp283
F0.013687600644122383
s(I-3
I-21
tp284
F0.027375201288244767
s(I21
I-36
tp285
F0.014492753623188406
s(I39
I0
tp286
F0.0065040650406504065
s(I-33
I21
tp287
F0.012077294685990338
s(I18
I-21
tp288
F0.0249597423510467
s(I-30
I-27
tp289
F0.01288244766505636
s(I-18
I-3
tp290
F0.04750402576489533
s(I6
I36
tp291
F0.01288244766505636
s(I30
I33
tp292
F0.008051529790660225
s(I-21
I30
tp293
F0.01288244766505636
s(I27
I21
tp294
F0.01932367149758454
s(I18
I27
tp295
F0.016908212560386472
s(I-30
I3
tp296
F0.020933977455716585
s(I-24
I-3
tp297
F0.020128824476650563
s(I9
I24
tp298
F0.020128824476650563
s(I12
I3
tp299
F0.0966183574879227
s(I36
I0
tp300
F0.015297906602254429
s(I-15
I-24
tp301
F0.020128824476650563
s(I27
I-18
tp302
F0.020128824476650563
s(I-12
I24
tp303
F0.02254428341384863
s(I24
I6
tp304
F0.020128824476650563
s(I21
I21
tp305
F0.010466988727858293
s(I-15
I21
tp306
F0.020128824476650563
s(I-12
I6
tp307
F0.09420289855072464
s(I-9
I27
tp308
F0.016908212560386472
s(I-27
I-9
tp309
F0.017713365539452495
s(I-30
I-6
tp310
F0.014492753623188406
s(I-33
I18
tp311
F0.018518518518518517
s(I-18
I30
tp312
F0.01288244766505636
s(I15
I-15
tp313
F0.04186795491143317
s(I39
I30
tp314
F0.0
s(I-21
I-24
tp315
F0.017713365539452495
s(I6
I-39
tp316
F0.00727802037845706
s(I9
I-21
tp317
F0.028985507246376812
s(I-18
I0
tp318
F0.04186795491143317
s(I-18
I-18
tp319
F0.02576489533011272
s(I-39
I9
tp320
F0.016166281755196306
s(I-27
I3
tp321
F0.021739130434782608
s(I-36
I-39
tp322
F0.005722460658082976
s(I-6
I15
tp323
F0.07890499194847021
s(I-3
I18
tp324
F0.043478260869565216
s(I33
I12
tp325
F0.01288244766505636
s(I24
I-36
tp326
F0.008051529790660225
s(I0
I-39
tp327
F0.01059001512859304
s(I33
I33
tp328
F0.00966183574879227
s(I-36
I-9
tp329
F0.015297906602254429
s(I39
I-18
tp330
F0.006745362563237774
s(I39
I-36
tp331
F0.0016750418760469012
s(I-3
I12
tp332
F0.0966183574879227
s(I-12
I-24
tp333
F0.02254428341384863
s(I36
I21
tp334
F0.004025764895330112
s(I-39
I3
tp335
F0.021696252465483234
s(I-30
I-39
tp336
F0.00904977375565611
s(I-36
I24
tp337
F0.014492753623188406
s(I24
I-24
tp338
F0.015297906602254429
s(I9
I-18
tp339
F0.04186795491143317
s(I-3
I-3
tp340
F0.11030595813204509
s(I3
I-33
tp341
F0.00966183574879227
s(I21
I-18
tp342
F0.024154589371980676
s(I30
I9
tp343
F0.01610305958132045
s(I-33
I27
tp344
F0.007246376811594203
s(I-18
I33
tp345
F0.008051529790660225
s(I-24
I-24
tp346
F0.014492753623188406
s(I27
I36
tp347
F0.010466988727858293
s(I15
I3
tp348
F0.08695652173913043
s(I-21
I12
tp349
F0.03140096618357488
s(I39
I6
tp350
F0.01487603305785124
s(I-33
I33
tp351
F0.01288244766505636
s(I-9
I36
tp352
F0.011272141706924315
s(I-18
I-15
tp353
F0.033011272141706925
s(I21
I0
tp354
F0.03462157809983897
s(I-30
I21
tp355
F0.012077294685990338
s(I36
I-18
tp356
F0.013687600644122383
s(I-9
I-12
tp357
F0.09420289855072464
s(I36
I24
tp358
F0.011272141706924315
s(I27
I33
tp359
F0.010466988727858293
s(I-24
I-15
tp360
F0.016908212560386472
s(I30
I-36
tp361
F0.007246376811594203
s(I-15
I15
tp362
F0.0426731078904992
s(I3
I27
tp363
F0.033011272141706925
s(I-12
I-9
tp364
F0.07326892109500806
s(I6
I-6
tp365
F0.1392914653784219
s(I39
I-6
tp366
F0.01818181818181818
s(I15
I-21
tp367
F0.02576489533011272
s(I21
I27
tp368
F0.01288244766505636
s(I15
I6
tp369
F0.05958132045088567
s(I3
I9
tp370
F0.0998389694041868
s(I-3
I27
tp371
F0.020128824476650563
s(I-33
I0
tp372
F0.01932367149758454
s(I6
I9
tp373
F0.10466988727858294
s(I-24
I24
tp374
F0.018518518518518517
s(I15
I39
tp375
F0.016320474777448073
s(I15
I27
tp376
F0.02254428341384863
s(I-18
I18
tp377
F0.030595813204508857
s(I33
I36
tp378
F0.00644122383252818
s(I-6
I-33
tp379
F0.02254428341384863
s(I-21
I-9
tp380
F0.0249597423510467
s(I-21
I27
tp381
F0.01288244766505636
s(I9
I-27
tp382
F0.011272141706924315
s(I-27
I33
tp383
F0.008856682769726247
s(I-3
I36
tp384
F0.012077294685990338
s(I-18
I-30
tp385
F0.01288244766505636
s(I33
I30
tp386
F0.004025764895330112
s(I-30
I6
tp387
F0.014492753623188406
s(I-3
I30
tp388
F0.018518518518518517
s(I-9
I-21
tp389
F0.03140096618357488
s(I24
I27
tp390
F0.015297906602254429
s(I12
I6
tp391
F0.0821256038647343
s(I18
I-30
tp392
F0.01610305958132045
s(I6
I-30
tp393
F0.00966183574879227
s(I-27
I21
tp394
F0.016908212560386472
s(I12
I-21
tp395
F0.03462157809983897
s(I30
I6
tp396
F0.016908212560386472
s(I-27
I-30
tp397
F0.008051529790660225
s(I-15
I18
tp398
F0.02818035426731079
s(I12
I12
tp399
F0.09500805152979067
s(I24
I39
tp400
F0.01775147928994083
s(I-33
I9
tp401
F0.01610305958132045
s(I9
I-30
tp402
F0.01610305958132045
s(I6
I0
tp403
F0.10950080515297907
s(I33
I21
tp404
F0.01288244766505636
s(I-12
I39
tp405
F0.008746355685131196
s(I-18
I21
tp406
F0.026570048309178744
s(I21
I18
tp407
F0.01932367149758454
s(I-30
I39
tp408
F0.008733624454148471
s(I-6
I24
tp409
F0.0322061191626409
s(I-18
I-27
tp410
F0.018518518518518517
s(I-12
I-33
tp411
F0.018518518518518517
s(I-36
I-36
tp412
F0.005636070853462158
s(I30
I-3
tp413
F0.0249597423510467
s(I9
I30
tp414
F0.01610305958132045
s(I-33
I-9
tp415
F0.01610305958132045
s(I-36
I-6
tp416
F0.008856682769726247
s(I-15
I-18
tp417
F0.03462157809983897
s(I15
I-33
tp418
F0.020933977455716585
s(I-27
I30
tp419
F0.014492753623188406
s(I12
I-30
tp420
F0.023349436392914653
s(I0
I27
tp421
F0.020128824476650563
s(I24
I-3
tp422
F0.016908212560386472
s(I0
I-6
tp423
F0.11835748792270531
s(I12
I27
tp424
F0.021739130434782608
s(I-27
I-21
tp425
F0.01288244766505636
s(I-36
I3
tp426
F0.016908212560386472
s(I-12
I0
tp427
F0.0861513687600644
s(I18
I30
tp428
F0.014492753623188406
s(I-9
I21
tp429
F0.02818035426731079
s(I-3
I-30
tp430
F0.016908212560386472
s(I18
I-15
tp431
F0.03542673107890499
s(I15
I36
tp432
F0.012077294685990338
s(I-24
I6
tp433
F0.020933977455716585
s(I33
I-30
tp434
F0.015297906602254429
s(I-3
I-36
tp435
F0.014492753623188406
s(I-27
I-33
tp436
F0.00966183574879227
s(I36
I-36
tp437
F0.010466988727858293
s(I-21
I-27
tp438
F0.014492753623188406
s(I-21
I9
tp439
F0.037037037037037035
s(I6
I-33
tp440
F0.013687600644122383
s(I36
I12
tp441
F0.01610305958132045
s(I-18
I6
tp442
F0.040257648953301126
s(I-24
I15
tp443
F0.020128824476650563
s(I-30
I24
tp444
F0.012077294685990338
s(I6
I-15
tp445
F0.0893719806763285
s(I3
I-18
tp446
F0.03542673107890499
s(I-36
I-15
tp447
F0.008856682769726247
s(I18
I18
tp448
F0.029790660225442835
s(I3
I-12
tp449
F0.08454106280193237
s(I0
I18
tp450
F0.04428341384863124
s(I24
I15
tp451
F0.0249597423510467
s(I0
I-15
tp452
F0.09098228663446055
s(I12
I18
tp453
F0.04186795491143317
s(I-15
I-12
tp454
F0.04830917874396135
s(I-39
I-12
tp455
F0.010169491525423728
s(I36
I-30
tp456
F0.012077294685990338
s(I-12
I15
tp457
F0.05958132045088567
s(I-9
I18
tp458
F0.03784219001610306
s(I27
I0
tp459
F0.02254428341384863
s(I30
I15
tp460
F0.014492753623188406
s(I18
I-39
tp461
F0.01023391812865497
s(I36
I33
tp462
F0.008051529790660225
s(I-18
I39
tp463
F0.012232415902140673
s(I-6
I-24
tp464
F0.024154589371980676
s(I21
I36
tp465
F0.010466988727858293
s(I18
I33
tp466
F0.013687600644122383
s(I-18
I9
tp467
F0.03784219001610306
s(I-18
I-9
tp468
F0.033816425120772944
s(I-33
I-33
tp469
F0.00966183574879227
s(I-21
I36
tp470
F0.012077294685990338
s(I-15
I12
tp471
F0.06843800322061191
s(I-24
I21
tp472
F0.01610305958132045
s(I-18
I-39
tp473
F0.019817073170731708
s(I-33
I-27
tp474
F0.005636070853462158
s(I30
I-15
tp475
F0.015297906602254429
s(I-27
I0
tp476
F0.01932367149758454
s(I-3
I3
tp477
F0.11272141706924316
s(I9
I18
tp478
F0.04830917874396135
s(I-12
I-15
tp479
F0.06763285024154589
s(I12
I-9
tp480
F0.08454106280193237
s(I15
I12
tp481
F0.05958132045088567
s(I-39
I-3
tp482
F0.012773722627737226
s(I-30
I9
tp483
F0.020128824476650563
s(I0
I15
tp484
F0.07648953301127215
s(I24
I-15
tp485
F0.01932367149758454
s(I0
I-18
tp486
F0.03784219001610306
s(I-3
I-12
tp487
F0.10144927536231885
s(I-39
I-33
tp488
F0.006514657980456026
s(I-36
I15
tp489
F0.011272141706924315
s(I-15
I36
tp490
F0.005636070853462158
s(I-3
I-18
tp491
F0.036231884057971016
s(I33
I39
tp492
F0.0
s(I6
I15
tp493
F0.07648953301127215
s(I30
I24
tp494
F0.015297906602254429
s(I18
I9
tp495
F0.03462157809983897
s(I6
I33
tp496
F0.023349436392914653
s(I-24
I-36
tp497
F0.00644122383252818
s(I18
I36
tp498
F0.01610305958132045
s(I3
I-36
tp499
F0.012077294685990338
s(I-33
I-30
tp500
F0.011272141706924315
s(I-24
I-6
tp501
F0.02818035426731079
s(I-39
I-36
tp502
F0.006472491909385114
s(I-27
I9
tp503
F0.012077294685990338
s(I3
I-30
tp504
F0.02818035426731079
s(I-9
I-27
tp505
F0.0249597423510467
s(I36
I9
tp506
F0.014492753623188406
s(I12
I0
tp507
F0.09500805152979067
s(I-36
I-3
tp508
F0.016908212560386472
s(I-15
I-21
tp509
F0.027375201288244767
s(I12
I-27
tp510
F0.018518518518518517
s(I0
I6
tp511
F0.1215780998389694
s(I24
I3
tp512
F0.020128824476650563
s(I0
I-27
tp513
F0.02576489533011272
s(I12
I30
tp514
F0.018518518518518517
s(I27
I30
tp515
F0.01932367149758454
s(I-39
I-24
tp516
F0.009836065573770493
s(I6
I-18
tp517
F0.0426731078904992
s(I-36
I6
tp518
F0.01932367149758454
s(I-9
I30
tp519
F0.017713365539452495
s(I-6
I-6
tp520
F0.10305958132045089
s(I30
I3
tp521
F0.014492753623188406
s(I-12
I33
tp522
F0.017713365539452495
s(I21
I-9
tp523
F0.036231884057971016
s(I-18
I27
tp524
F0.020128824476650563
s(I3
I-39
tp525
F0.008968609865470852
s(I6
I24
tp526
F0.027375201288244767
s(I-21
I-18
tp527
F0.021739130434782608
s(I-21
I18
tp528
F0.018518518518518517
s(I39
I-24
tp529
F0.012944983818770227
s(I-18
I-21
tp530
F0.017713365539452495
s(I-33
I-21
tp531
F0.008856682769726247
s(I39
I-3
tp532
F0.012759170653907496
s(I-12
I-39
tp533
F0.011764705882352941
s(I-6
I0
tp534
F0.11594202898550725
s(I-3
I21
tp535
F0.03542673107890499
s(I-9
I-30
tp536
F0.017713365539452495
s(I-33
I-15
tp537
F0.008856682769726247
s(I24
I-39
tp538
F0.005805515239477504
s(I-36
I-12
tp539
F0.016908212560386472
s(I15
I18
tp540
F0.024154589371980676
s(I27
I-30
tp541
F0.011272141706924315
s(I-3
I15
tp542
F0.07971014492753623
s(I12
I21
tp543
F0.02576489533011272
s(I9
I3
tp544
F0.09742351046698873
s(I-15
I9
tp545
F0.08373590982286634
s(I36
I-27
tp546
F0.008856682769726247
s(I12
I-6
tp547
F0.07648953301127215
s(I24
I-27
tp548
F0.010466988727858293
s(I3
I30
tp549
F0.013687600644122383
s(I-15
I33
tp550
F0.02254428341384863
s(I39
I21
tp551
F0.017973856209150325
s(I39
I33
tp552
F0.0016778523489932886
s(I-33
I30
tp553
F0.008856682769726247
s(I3
I36
tp554
F0.018518518518518517
s(I3
I3
tp555
F0.11916264090177134
s(I-6
I33
tp556
F0.016908212560386472
s(I-33
I36
tp557
F0.008051529790660225
s(I21
I-24
tp558
F0.013687600644122383
s(I-21
I-3
tp559
F0.026570048309178744
s(I-21
I33
tp560
F0.010466988727858293
s(I6
I-9
tp561
F0.10869565217391304
s(I33
I0
tp562
F0.011272141706924315
s(I-15
I-27
tp563
F0.018518518518518517
s(I15
I24
tp564
F0.014492753623188406
s(I-12
I-12
tp565
F0.06521739130434782
s(I-39
I-6
tp566
F0.01824817518248175
s(I-12
I9
tp567
F0.10869565217391304
s(I-30
I-15
tp568
F0.01610305958132045
s(I6
I-24
tp569
F0.01932367149758454
s(I9
I-12
tp570
F0.10144927536231885
s(I33
I-27
tp571
F0.013687600644122383
s(I21
I33
tp572
F0.004830917874396135
s(I-30
I-21
tp573
F0.015297906602254429
s(I18
I-12
tp574
F0.0322061191626409
s(I-21
I0
tp575
F0.037037037037037035
s(I-18
I15
tp576
F0.029790660225442835
s(I9
I36
tp577
F0.018518518518518517
s(I-33
I-39
tp578
F0.0076103500761035
s(I36
I-39
tp579
F0.004392386530014641
s(I21
I12
tp580
F0.0249597423510467
s(I-6
I18
tp581
F0.03864734299516908
s(I-27
I36
tp582
F0.011272141706924315
s(I-3
I39
tp583
F0.016591251885369532
s(I-18
I-33
tp584
F0.00644122383252818
s(I30
I-9
tp585
F0.02254428341384863
s(I-39
I-39
tp586
F0.010723860589812333
s(I-9
I-18
tp587
F0.05152979066022544
s(I24
I24
tp588
F0.015297906602254429
s(I18
I-24
tp589
F0.01932367149758454
s(I36
I-21
tp590
F0.008051529790660225
s(I12
I-24
tp591
F0.02576489533011272
s(I3
I12
tp592
F0.09742351046698873
s(I-27
I-27
tp593
F0.008051529790660225
s(I33
I-36
tp594
F0.008051529790660225
s(I-39
I-27
tp595
F0.006600660066006601
s(I12
I33
tp596
F0.010466988727858293
s(I-36
I9
tp597
F0.014492753623188406
s(I0
I39
tp598
F0.007462686567164179
s(I24
I36
tp599
F0.00644122383252818
s(I-33
I12
tp600
F0.00966183574879227
s(I-9
I3
tp601
F0.09581320450885668
s(I3
I18
tp602
F0.0426731078904992
s(I-6
I-15
tp603
F0.06360708534621579
s(I-30
I-30
tp604
F0.001610305958132045
s(I-36
I39
tp605
F0.009538950715421303
s(I-12
I36
tp606
F0.013687600644122383
s(I18
I-9
tp607
F0.033816425120772944
s(I6
I39
tp608
F0.010558069381598794
s(I-30
I-36
tp609
F0.008856682769726247
s(I39
I27
tp610
F0.009819967266775777
s(I36
I-15
tp611
F0.00966183574879227
s(I3
I-3
tp612
F0.09742351046698873
s(I33
I18
tp613
F0.01610305958132045
s(I-12
I-36
tp614
F0.004830917874396135
s(I39
I-21
tp615
F0.011784511784511785
s(I-15
I-33
tp616
F0.01288244766505636
s(I-12
I-6
tp617
F0.107085346215781
s(I39
I-33
tp618
F0.005
s(I9
I-3
tp619
F0.12318840579710146
s(I12
I9
tp620
F0.07246376811594203
s(I0
I24
tp621
F0.02576489533011272
s(I24
I-6
tp622
F0.021739130434782608
s(I12
I24
tp623
F0.028985507246376812
s(I-27
I-18
tp624
F0.013687600644122383
s(I21
I-39
tp625
F0.013333333333333334
s(I-39
I-18
tp626
F0.025167785234899327
s(I-36
I0
tp627
F0.01932367149758454
s(I12
I-3
tp628
F0.09259259259259259
s(I-9
I24
tp629
F0.023349436392914653
s(I-24
I-21
tp630
F0.017713365539452495
s(I39
I-12
tp631
F0.012924071082390954
s(I-24
I3
tp632
F0.027375201288244767
s(I39
I3
tp633
F0.016129032258064516
s(I15
I-9
tp634
F0.07568438003220612
s(I-3
I-33
tp635
F0.012077294685990338
s(I15
I-3
tp636
F0.0748792270531401
s(I-6
I-30
tp637
F0.014492753623188406
s(I21
I30
tp638
F0.008856682769726247
s(I18
I-33
tp639
F0.013687600644122383
s(I30
I-33
tp640
F0.010466988727858293
s(I-6
I36
tp641
F0.01288244766505636
s(I3
I39
tp642
F0.01608187134502924
s(I-18
I3
tp643
F0.04508856682769726
s(I18
I21
tp644
F0.02254428341384863
s(I36
I-33
tp645
F0.008051529790660225
s(I12
I-18
tp646
F0.03864734299516908
s(I18
I39
tp647
F0.005961251862891207
s(I12
I-36
tp648
F0.011272141706924315
s(I21
I39
tp649
F0.012012012012012012
s(I33
I3
tp650
F0.008856682769726247
s(I18
I-6
tp651
F0.050724637681159424
s(I-15
I-30
tp652
F0.015297906602254429
s(I39
I12
tp653
F0.011475409836065573
s(I24
I12
tp654
F0.021739130434782608
s(I-39
I-9
tp655
F0.011725293132328308
s(I-12
I12
tp656
F0.09098228663446055
s(I18
I0
tp657
F0.05233494363929147
s(I3
I0
tp658
F0.09259259259259259
s(I-27
I-15
tp659
F0.01932367149758454
s(I-30
I-12
tp660
F0.014492753623188406
s(I12
I-15
tp661
F0.05314009661835749
s(I-30
I15
tp662
F0.020933977455716585
s(I39
I-27
tp663
F0.008116883116883116
s(I-33
I24
tp664
F0.012077294685990338
s(I-9
I15
tp665
F0.07971014492753623
s(I-30
I-18
tp666
F0.010466988727858293
s(I-21
I-21
tp667
F0.017713365539452495
s(I-9
I-33
tp668
F0.021739130434782608
s(I30
I-24
tp669
F0.010466988727858293
s(I-6
I9
tp670
F0.11996779388083736
s(I18
I15
tp671
F0.04669887278582931
s(I33
I6
tp672
F0.015297906602254429
s(I0
I-33
tp673
F0.012077294685990338
s(I-39
I33
tp674
F0.0
s(I-3
I6
tp675
F0.11755233494363929
s(I33
I-39
tp676
F0.0057553956834532375
s(I-36
I-21
tp677
F0.00966183574879227
s(I-15
I-3
tp678
F0.07085346215780998
s(I-15
I0
tp679
F0.08454106280193237
s(I12
I15
tp680
F0.07971014492753623
s(I0
I12
tp681
F0.11594202898550725
s(I24
I-18
tp682
F0.017713365539452495
s(I0
I-21
tp683
F0.030595813204508857
s(I-3
I-9
tp684
F0.1143317230273752
s(I-27
I-6
tp685
F0.0249597423510467
s(I-39
I-30
tp686
F0.011419249592169658
s(I-36
I12
tp687
F0.011272141706924315
s(I9
I-6
tp688
F0.11513687600644122
s(I-6
I-12
tp689
F0.09581320450885668
s(I30
I21
tp690
F0.013687600644122383
s(I9
I-36
tp691
F0.012077294685990338
s(I21
I-33
tp692
F0.008856682769726247
s(I12
I36
tp693
F0.015297906602254429
s(I-21
I-12
tp694
F0.0249597423510467
s(I-21
I24
tp695
F0.014492753623188406
s(I27
I-36
tp696
F0.008051529790660225
s(I9
I12
tp697
F0.09742351046698873
s(I-24
I-9
tp698
F0.018518518518518517
s(I-15
I39
tp699
F0.0045045045045045045
s(I-27
I12
tp700
F0.02254428341384863
s(I-9
I-24
tp701
F0.02576489533011272
s(I-12
I-3
tp702
F0.0821256038647343
s(I-36
I-30
tp703
F0.008856682769726247
s(I6
I18
tp704
F0.050724637681159424
s(I27
I-24
tp705
F0.01288244766505636
s(I-12
I18
tp706
F0.043478260869565216
s(I0
I3
tp707
F0.10305958132045089
s(I24
I0
tp708
F0.02576489533011272
s(I0
I-30
tp709
F0.016908212560386472
s(I-21
I-36
tp710
F0.007246376811594203
s(I-39
I-21
tp711
F0.01174496644295302
s(I27
I-27
tp712
F0.010466988727858293
s(I6
I3
tp713
F0.11352657004830918
s(I-24
I30
tp714
F0.014492753623188406
s(I-36
I33
tp715
F0.00966183574879227
s(I21
I3
tp716
F0.04911433172302738
s(I-24
I9
tp717
F0.0249597423510467
s(I-6
I-39
tp718
F0.010835913312693499
s(I-24
I36
tp719
F0.010466988727858293
s(I-6
I27
tp720
F0.023349436392914653
s(I18
I24
tp721
F0.01610305958132045
s(I-33
I-18
tp722
F0.013687600644122383
s(I-30
I0
tp723
F0.01610305958132045
s(I27
I-33
tp724
F0.005636070853462158
s(I-3
I24
tp725
F0.024154589371980676
s(I-33
I-12
tp726
F0.017713365539452495
s(I-12
I-30
tp727
F0.02254428341384863
s(I27
I18
tp728
F0.020933977455716585
s(I39
I18
tp729
F0.01652892561983471
s(I36
I-6
tp730
F0.01288244766505636
s(I24
I-30
tp731
F0.007246376811594203
s(I39
I24
tp732
F0.009950248756218905
s.